target datalayout = "e-m:e-p270:32:32-p271:32:32-p272:64:64-i64:64-i128:128-f80:128-n8:16:32:64-S128"
target triple = "x86_64-pc-linux-gnu"

%struct.AVPacket = type { ptr, i64, i64, ptr, i32, i32, i32, ptr, i32, i64, i64, ptr, ptr, %struct.AVRational }
%struct.AVRational = type { i32, i32 }
%struct.AVStream = type { ptr, i32, i32, ptr, ptr, %struct.AVRational, i64, i64, i64, i32, i32, %struct.AVRational, ptr, %struct.AVRational, %struct.AVPacket, i32, %struct.AVRational, i32 }
%struct.AVFormatContext = type { ptr, ptr, ptr, ptr, ptr, i32, i32, ptr, i32, ptr, i32, ptr, ptr, i64, i64, i64, i32, i32, i32, i64, i64, ptr, i32, i32, ptr, i32, i32, i32, i32, ptr, i64, i32, i32, %struct.AVIOInterruptCB, i32, i32, i32, i32, i64, i32, i32, i32, i32, i32, i32, i32, i32, i32, i32, i32, i32, i64, i32, i32, i32, i32, i32, ptr, ptr, ptr, ptr, i32, ptr, ptr, ptr, ptr, i32, ptr, ptr, i64, ptr, ptr, ptr, i64 }
%struct.AVIOInterruptCB = type { ptr, ptr }
%struct.RMDemuxContext = type { i32, i32, i32, i32, i32, i32, i32 }

@.str.49 = private unnamed_addr constant [20 x i8] c"size %u is invalid\0A\00", align 1
@.str.50 = private unnamed_addr constant [30 x i8] c"Unsupported opcode=%d at %lX\0A\00", align 1

; Function Attrs: alwaysinline nounwind uwtable
define internal i64 @avio_tell(ptr noundef %0) #3 {
  %2 = alloca ptr, align 8
  store ptr %0, ptr %2, align 8, !tbaa !20
  %3 = load ptr, ptr %2, align 8, !tbaa !20
  %4 = call i64 @avio_seek(ptr noundef %3, i64 noundef 0, i32 noundef 1)
  ret i64 %4
}

; Function Attrs: nounwind uwtable
define internal i32 @ivr_read_packet(ptr noundef %0, ptr noundef %1) #0 {
  %3 = alloca i32, align 4
  %4 = alloca ptr, align 8
  %5 = alloca ptr, align 8
  %6 = alloca ptr, align 8
  %7 = alloca i32, align 4
  %8 = alloca i32, align 4
  %9 = alloca ptr, align 8
  %10 = alloca i32, align 4
  %11 = alloca i32, align 4
  %12 = alloca i64, align 8
  %13 = alloca i64, align 8
  %14 = alloca i32, align 4
  %15 = alloca ptr, align 8
  %16 = alloca ptr, align 8
  %17 = alloca i32, align 4
  store ptr %0, ptr %4, align 8, !tbaa !18
  store ptr %1, ptr %5, align 8, !tbaa !85
  call void @llvm.lifetime.start.p0(i64 8, ptr %6) #10
  %18 = load ptr, ptr %4, align 8, !tbaa !18
  %19 = getelementptr inbounds nuw %struct.AVFormatContext, ptr %18, i32 0, i32 3
  %20 = load ptr, ptr %19, align 8, !tbaa !89
  store ptr %20, ptr %6, align 8, !tbaa !90
  call void @llvm.lifetime.start.p0(i64 4, ptr %7) #10
  store i32 -541478725, ptr %7, align 4, !tbaa !24
  call void @llvm.lifetime.start.p0(i64 4, ptr %8) #10
  call void @llvm.lifetime.start.p0(i64 8, ptr %9) #10
  %21 = load ptr, ptr %4, align 8, !tbaa !18
  %22 = getelementptr inbounds nuw %struct.AVFormatContext, ptr %21, i32 0, i32 4
  %23 = load ptr, ptr %22, align 8, !tbaa !122
  store ptr %23, ptr %9, align 8, !tbaa !20
  call void @llvm.lifetime.start.p0(i64 4, ptr %10) #10
  call void @llvm.lifetime.start.p0(i64 4, ptr %11) #10
  call void @llvm.lifetime.start.p0(i64 8, ptr %12) #10
  call void @llvm.lifetime.start.p0(i64 8, ptr %13) #10
  %24 = load ptr, ptr %9, align 8, !tbaa !20
  %25 = call i32 @avio_feof(ptr noundef %24)
  %26 = icmp ne i32 %25, 0
  br i1 %26, label %32, label %27

27:                                               ; preds = %2
  %28 = load ptr, ptr %6, align 8, !tbaa !90
  %29 = getelementptr inbounds nuw %struct.RMDemuxContext, ptr %28, i32 0, i32 6
  %30 = load i32, ptr %29, align 4, !tbaa !142
  %31 = icmp ne i32 %30, 0
  br i1 %31, label %32, label %33

32:                                               ; preds = %27, %2
  store i32 -541478725, ptr %3, align 4
  store i32 1, ptr %14, align 4
  br label %181

33:                                               ; preds = %27
  %34 = load ptr, ptr %9, align 8, !tbaa !20
  %35 = call i64 @avio_tell(ptr noundef %34)
  store i64 %35, ptr %12, align 8, !tbaa !34
  br label %36

36:                                               ; preds = %155, %33
  %37 = load ptr, ptr %6, align 8, !tbaa !90
  %38 = getelementptr inbounds nuw %struct.RMDemuxContext, ptr %37, i32 0, i32 5
  %39 = load i32, ptr %38, align 4, !tbaa !102
  %40 = icmp ne i32 %39, 0
  br i1 %40, label %41, label %67

41:                                               ; preds = %36
  call void @llvm.lifetime.start.p0(i64 8, ptr %15) #10
  %42 = load ptr, ptr %4, align 8, !tbaa !18
  %43 = getelementptr inbounds nuw %struct.AVFormatContext, ptr %42, i32 0, i32 7
  %44 = load ptr, ptr %43, align 8, !tbaa !131
  %45 = load ptr, ptr %6, align 8, !tbaa !90
  %46 = getelementptr inbounds nuw %struct.RMDemuxContext, ptr %45, i32 0, i32 4
  %47 = load i32, ptr %46, align 4, !tbaa !101
  %48 = sext i32 %47 to i64
  %49 = getelementptr inbounds ptr, ptr %44, i64 %48
  %50 = load ptr, ptr %49, align 8, !tbaa !22
  store ptr %50, ptr %15, align 8, !tbaa !22
  %51 = load ptr, ptr %4, align 8, !tbaa !18
  %52 = load ptr, ptr %9, align 8, !tbaa !20
  %53 = load ptr, ptr %15, align 8, !tbaa !22
  %54 = load ptr, ptr %15, align 8, !tbaa !22
  %55 = getelementptr inbounds nuw %struct.AVStream, ptr %54, i32 0, i32 4
  %56 = load ptr, ptr %55, align 8, !tbaa !126
  %57 = load ptr, ptr %5, align 8, !tbaa !85
  %58 = call i32 @ff_rm_retrieve_cache(ptr noundef %51, ptr noundef %52, ptr noundef %53, ptr noundef %56, ptr noundef %57)
  store i32 %58, ptr %7, align 4, !tbaa !24
  %59 = load i32, ptr %7, align 4, !tbaa !24
  %60 = icmp slt i32 %59, 0
  br i1 %60, label %61, label %63

61:                                               ; preds = %41
  %62 = load i32, ptr %7, align 4, !tbaa !24
  store i32 %62, ptr %3, align 4
  store i32 1, ptr %14, align 4
  br label %64

63:                                               ; preds = %41
  store i32 0, ptr %14, align 4
  br label %64

64:                                               ; preds = %63, %61
  call void @llvm.lifetime.end.p0(i64 8, ptr %15) #10
  %65 = load i32, ptr %14, align 4
  switch i32 %65, label %181 [
    i32 0, label %66
  ]

66:                                               ; preds = %64
  br label %178

67:                                               ; preds = %36
  %68 = load ptr, ptr %6, align 8, !tbaa !90
  %69 = getelementptr inbounds nuw %struct.RMDemuxContext, ptr %68, i32 0, i32 3
  %70 = load i32, ptr %69, align 4, !tbaa !109
  %71 = icmp ne i32 %70, 0
  br i1 %71, label %72, label %81

72:                                               ; preds = %67
  %73 = load ptr, ptr %9, align 8, !tbaa !20
  %74 = load ptr, ptr %6, align 8, !tbaa !90
  %75 = getelementptr inbounds nuw %struct.RMDemuxContext, ptr %74, i32 0, i32 3
  %76 = load i32, ptr %75, align 4, !tbaa !109
  %77 = sext i32 %76 to i64
  %78 = call i64 @avio_skip(ptr noundef %73, i64 noundef %77)
  %79 = load ptr, ptr %6, align 8, !tbaa !90
  %80 = getelementptr inbounds nuw %struct.RMDemuxContext, ptr %79, i32 0, i32 3
  store i32 0, ptr %80, align 4, !tbaa !109
  br label %81

81:                                               ; preds = %72, %67
  %82 = load ptr, ptr %9, align 8, !tbaa !20
  %83 = call i32 @avio_feof(ptr noundef %82)
  %84 = icmp ne i32 %83, 0
  br i1 %84, label %85, label %86

85:                                               ; preds = %81
  store i32 -541478725, ptr %3, align 4
  store i32 1, ptr %14, align 4
  br label %181

86:                                               ; preds = %81
  %87 = load ptr, ptr %9, align 8, !tbaa !20
  %88 = call i32 @avio_r8(ptr noundef %87)
  store i32 %88, ptr %8, align 4, !tbaa !24
  %89 = load i32, ptr %8, align 4, !tbaa !24
  %90 = icmp eq i32 %89, 2
  br i1 %90, label %91, label %158

91:                                               ; preds = %86
  call void @llvm.lifetime.start.p0(i64 8, ptr %16) #10
  call void @llvm.lifetime.start.p0(i64 4, ptr %17) #10
  store i32 1, ptr %17, align 4, !tbaa !24
  %92 = load ptr, ptr %9, align 8, !tbaa !20
  %93 = call i32 @avio_rb32(ptr noundef %92)
  %94 = zext i32 %93 to i64
  store i64 %94, ptr %13, align 8, !tbaa !34
  %95 = load ptr, ptr %9, align 8, !tbaa !20
  %96 = call i32 @avio_rb16(ptr noundef %95)
  store i32 %96, ptr %11, align 4, !tbaa !24
  %97 = load i32, ptr %11, align 4, !tbaa !24
  %98 = load ptr, ptr %4, align 8, !tbaa !18
  %99 = getelementptr inbounds nuw %struct.AVFormatContext, ptr %98, i32 0, i32 6
  %100 = load i32, ptr %99, align 4, !tbaa !134
  %101 = icmp uge i32 %97, %100
  br i1 %101, label %102, label %103

102:                                              ; preds = %91
  store i32 -1094995529, ptr %3, align 4
  store i32 1, ptr %14, align 4
  br label %155

103:                                              ; preds = %91
  %104 = load ptr, ptr %9, align 8, !tbaa !20
  %105 = call i64 @avio_skip(ptr noundef %104, i64 noundef 4)
  %106 = load ptr, ptr %9, align 8, !tbaa !20
  %107 = call i32 @avio_rb32(ptr noundef %106)
  store i32 %107, ptr %10, align 4, !tbaa !24
  %108 = load ptr, ptr %9, align 8, !tbaa !20
  %109 = call i64 @avio_skip(ptr noundef %108, i64 noundef 4)
  %110 = load i32, ptr %10, align 4, !tbaa !24
  %111 = icmp ult i32 %110, 1
  br i1 %111, label %115, label %112

112:                                              ; preds = %103
  %113 = load i32, ptr %10, align 4, !tbaa !24
  %114 = icmp ugt i32 %113, 536870911
  br i1 %114, label %115, label %118

115:                                              ; preds = %112, %103
  %116 = load ptr, ptr %4, align 8, !tbaa !18
  %117 = load i32, ptr %10, align 4, !tbaa !24
  call void (ptr, i32, ptr, ...) @av_log(ptr noundef %116, i32 noundef 16, ptr noundef @.str.49, i32 noundef %117)
  store i32 -1094995529, ptr %3, align 4
  store i32 1, ptr %14, align 4
  br label %155

118:                                              ; preds = %112
  %119 = load ptr, ptr %4, align 8, !tbaa !18
  %120 = getelementptr inbounds nuw %struct.AVFormatContext, ptr %119, i32 0, i32 7
  %121 = load ptr, ptr %120, align 8, !tbaa !131
  %122 = load i32, ptr %11, align 4, !tbaa !24
  %123 = zext i32 %122 to i64
  %124 = getelementptr inbounds nuw ptr, ptr %121, i64 %123
  %125 = load ptr, ptr %124, align 8, !tbaa !22
  store ptr %125, ptr %16, align 8, !tbaa !22
  %126 = load ptr, ptr %4, align 8, !tbaa !18
  %127 = load ptr, ptr %9, align 8, !tbaa !20
  %128 = load ptr, ptr %16, align 8, !tbaa !22
  %129 = load ptr, ptr %16, align 8, !tbaa !22
  %130 = getelementptr inbounds nuw %struct.AVStream, ptr %129, i32 0, i32 4
  %131 = load ptr, ptr %130, align 8, !tbaa !126
  %132 = load i32, ptr %10, align 4, !tbaa !24
  %133 = load ptr, ptr %5, align 8, !tbaa !85
  %134 = load i64, ptr %13, align 8, !tbaa !34
  %135 = call i32 @ff_rm_parse_packet(ptr noundef %126, ptr noundef %127, ptr noundef %128, ptr noundef %131, i32 noundef %132, ptr noundef %133, ptr noundef %17, i32 noundef 0, i64 noundef %134)
  store i32 %135, ptr %7, align 4, !tbaa !24
  %136 = load i32, ptr %7, align 4, !tbaa !24
  %137 = icmp slt i32 %136, -1
  br i1 %137, label %138, label %140

138:                                              ; preds = %118
  %139 = load i32, ptr %7, align 4, !tbaa !24
  store i32 %139, ptr %3, align 4
  store i32 1, ptr %14, align 4
  br label %155

140:                                              ; preds = %118
  %141 = load i32, ptr %7, align 4, !tbaa !24
  %142 = icmp ne i32 %141, 0
  br i1 %142, label %143, label %144

143:                                              ; preds = %140
  store i32 3, ptr %14, align 4
  br label %155

144:                                              ; preds = %140
  br label %145

145:                                              ; preds = %144
  %146 = load i64, ptr %12, align 8, !tbaa !34
  %147 = load ptr, ptr %5, align 8, !tbaa !85
  %148 = getelementptr inbounds nuw %struct.AVPacket, ptr %147, i32 0, i32 10
  store i64 %146, ptr %148, align 8, !tbaa !116
  %149 = load i64, ptr %13, align 8, !tbaa !34
  %150 = load ptr, ptr %5, align 8, !tbaa !85
  %151 = getelementptr inbounds nuw %struct.AVPacket, ptr %150, i32 0, i32 1
  store i64 %149, ptr %151, align 8, !tbaa !105
  %152 = load i32, ptr %11, align 4, !tbaa !24
  %153 = load ptr, ptr %5, align 8, !tbaa !85
  %154 = getelementptr inbounds nuw %struct.AVPacket, ptr %153, i32 0, i32 5
  store i32 %152, ptr %154, align 4, !tbaa !104
  store i32 0, ptr %14, align 4
  br label %155

155:                                              ; preds = %145, %143, %138, %115, %102
  call void @llvm.lifetime.end.p0(i64 4, ptr %17) #10
  call void @llvm.lifetime.end.p0(i64 8, ptr %16) #10
  %156 = load i32, ptr %14, align 4
  switch i32 %156, label %181 [
    i32 0, label %157
    i32 3, label %36
  ]

157:                                              ; preds = %155
  br label %177

158:                                              ; preds = %86
  %159 = load i32, ptr %8, align 4, !tbaa !24
  %160 = icmp eq i32 %159, 7
  br i1 %160, label %161, label %170

161:                                              ; preds = %158
  %162 = load ptr, ptr %9, align 8, !tbaa !20
  %163 = call i64 @avio_rb64(ptr noundef %162)
  store i64 %163, ptr %12, align 8, !tbaa !34
  %164 = load i64, ptr %12, align 8, !tbaa !34
  %165 = icmp ne i64 %164, 0
  br i1 %165, label %169, label %166

166:                                              ; preds = %161
  %167 = load ptr, ptr %6, align 8, !tbaa !90
  %168 = getelementptr inbounds nuw %struct.RMDemuxContext, ptr %167, i32 0, i32 6
  store i32 1, ptr %168, align 4, !tbaa !142
  store i32 -541478725, ptr %3, align 4
  store i32 1, ptr %14, align 4
  br label %181

169:                                              ; preds = %161
  br label %176

170:                                              ; preds = %158
  %171 = load ptr, ptr %4, align 8, !tbaa !18
  %172 = load i32, ptr %8, align 4, !tbaa !24
  %173 = load ptr, ptr %9, align 8, !tbaa !20
  %174 = call i64 @avio_tell(ptr noundef %173)
  %175 = sub nsw i64 %174, 1
  call void (ptr, i32, ptr, ...) @av_log(ptr noundef %171, i32 noundef 16, ptr noundef @.str.50, i32 noundef %172, i64 noundef %175)
  store i32 -5, ptr %3, align 4
  store i32 1, ptr %14, align 4
  br label %181

176:                                              ; preds = %169
  br label %177

177:                                              ; preds = %176, %157
  br label %178

178:                                              ; preds = %177, %66
  br label %179

179:                                              ; preds = %178
  %180 = load i32, ptr %7, align 4, !tbaa !24
  store i32 %180, ptr %3, align 4
  store i32 1, ptr %14, align 4
  br label %181

181:                                              ; preds = %179, %170, %166, %155, %85, %64, %32
  call void @llvm.lifetime.end.p0(i64 8, ptr %13) #10
  call void @llvm.lifetime.end.p0(i64 8, ptr %12) #10
  call void @llvm.lifetime.end.p0(i64 4, ptr %11) #10
  call void @llvm.lifetime.end.p0(i64 4, ptr %10) #10
  call void @llvm.lifetime.end.p0(i64 8, ptr %9) #10
  call void @llvm.lifetime.end.p0(i64 4, ptr %8) #10
  call void @llvm.lifetime.end.p0(i64 4, ptr %7) #10
  call void @llvm.lifetime.end.p0(i64 8, ptr %6) #10
  %182 = load i32, ptr %3, align 4
  ret i32 %182
}