; Function Attrs: nounwind uwtable
define internal i32 @ivr_read_packet(ptr noundef %0, ptr noundef %1) #0 {
  %3 = alloca i32, align 4
  %4 = getelementptr inbounds nuw i8, ptr %0, i64 24
  %5 = load ptr, ptr %4, align 8, !tbaa !71
  %6 = getelementptr inbounds nuw i8, ptr %0, i64 32
  %7 = load ptr, ptr %6, align 8, !tbaa !98
  %8 = tail call i32 @avio_feof(ptr noundef %7) #12
  %.not = icmp eq i32 %8, 0
  br i1 %.not, label %9, label %.loopexit

9:                                                ; preds = %2
  %10 = getelementptr inbounds nuw i8, ptr %5, i64 24
  %11 = load i32, ptr %10, align 4, !tbaa !120
  %.not74 = icmp eq i32 %11, 0
  br i1 %.not74, label %12, label %.loopexit

12:                                               ; preds = %9
  %13 = tail call i64 @avio_seek(ptr noundef %7, i64 noundef 0, i32 noundef 1) #12
  %14 = getelementptr inbounds nuw i8, ptr %5, i64 20
  %15 = load i32, ptr %14, align 4, !tbaa !90
  %.not75106 = icmp eq i32 %15, 0
  br i1 %.not75106, label %.lr.ph, label %._crit_edge

.lr.ph:                                           ; preds = %12
  %16 = getelementptr inbounds nuw i8, ptr %5, i64 12
  %17 = getelementptr inbounds nuw i8, ptr %0, i64 44
  %18 = getelementptr inbounds nuw i8, ptr %0, i64 48
  br label %29

._crit_edge:                                      ; preds = %62, %12
  %19 = getelementptr inbounds nuw i8, ptr %0, i64 48
  %20 = load ptr, ptr %19, align 8, !tbaa !107
  %21 = getelementptr inbounds nuw i8, ptr %5, i64 16
  %22 = load i32, ptr %21, align 4, !tbaa !89
  %23 = sext i32 %22 to i64
  %24 = getelementptr inbounds ptr, ptr %20, i64 %23
  %25 = load ptr, ptr %24, align 8, !tbaa !108
  %26 = getelementptr inbounds nuw i8, ptr %25, i64 24
  %27 = load ptr, ptr %26, align 8, !tbaa !100
  %28 = tail call i32 @ff_rm_retrieve_cache(ptr noundef nonnull %0, ptr noundef %7, ptr noundef %25, ptr noundef %27, ptr noundef %1)
  br label %.loopexit

29:                                               ; preds = %.lr.ph, %62
  %.062107 = phi i32 [ -541478725, %.lr.ph ], [ %56, %62 ]
  %30 = load i32, ptr %16, align 4, !tbaa !75
  %.not76 = icmp eq i32 %30, 0
  br i1 %.not76, label %34, label %31

31:                                               ; preds = %29
  %32 = sext i32 %30 to i64
  %33 = tail call i64 @avio_skip(ptr noundef %7, i64 noundef %32) #12
  store i32 0, ptr %16, align 4, !tbaa !75
  br label %34

34:                                               ; preds = %31, %29
  %35 = tail call i32 @avio_feof(ptr noundef %7) #12
  %.not77 = icmp eq i32 %35, 0
  br i1 %.not77, label %36, label %.loopexit

36:                                               ; preds = %34
  %37 = tail call i32 @avio_r8(ptr noundef %7) #12
  switch i32 %37, label %67 [
    i32 2, label %38
    i32 7, label %64
  ]

38:                                               ; preds = %36
  call void @llvm.lifetime.start.p0(i64 4, ptr nonnull %3) #12
  %39 = tail call i32 @avio_rb32(ptr noundef %7) #12
  %40 = zext i32 %39 to i64
  %41 = tail call i32 @avio_rb16(ptr noundef %7) #12
  %42 = load i32, ptr %17, align 4, !tbaa !112
  %.not79 = icmp ult i32 %41, %42
  br i1 %.not79, label %43, label %.thread

43:                                               ; preds = %38
  %44 = tail call i64 @avio_skip(ptr noundef %7, i64 noundef 4) #12
  %45 = tail call i32 @avio_rb32(ptr noundef %7) #12
  %46 = tail call i64 @avio_skip(ptr noundef %7, i64 noundef 4) #12
  %47 = add i32 %45, -536870912
  %or.cond = icmp ult i32 %47, -536870911
  br i1 %or.cond, label %48, label %49

48:                                               ; preds = %43
  tail call void (ptr, i32, ptr, ...) @av_log(ptr noundef nonnull %0, i32 noundef 16, ptr noundef nonnull @.str.49, i32 noundef %45) #12
  br label %.thread

49:                                               ; preds = %43
  %50 = load ptr, ptr %18, align 8, !tbaa !107
  %51 = zext i32 %41 to i64
  %52 = getelementptr inbounds nuw ptr, ptr %50, i64 %51
  %53 = load ptr, ptr %52, align 8, !tbaa !108
  %54 = getelementptr inbounds nuw i8, ptr %53, i64 24
  %55 = load ptr, ptr %54, align 8, !tbaa !100
  %56 = call i32 @ff_rm_parse_packet(ptr noundef nonnull %0, ptr noundef %7, ptr noundef %53, ptr noundef %55, i32 noundef %45, ptr noundef %1, ptr noundef nonnull %3, i32 noundef 0, i64 noundef %40)
  %57 = icmp slt i32 %56, -1
  br i1 %57, label %.thread, label %58

58:                                               ; preds = %49
  %.not80 = icmp eq i32 %56, 0
  br i1 %.not80, label %.thread84, label %62

.thread84:                                        ; preds = %58
  %59 = getelementptr inbounds nuw i8, ptr %1, i64 72
  store i64 %13, ptr %59, align 8, !tbaa !83
  %60 = getelementptr inbounds nuw i8, ptr %1, i64 8
  store i64 %40, ptr %60, align 8, !tbaa !95
  %61 = getelementptr inbounds nuw i8, ptr %1, i64 36
  store i32 %41, ptr %61, align 4, !tbaa !94
  call void @llvm.lifetime.end.p0(i64 4, ptr nonnull %3) #12
  br label %.loopexit

.thread:                                          ; preds = %38, %49, %48
  %.3.ph = phi i32 [ -1094995529, %48 ], [ -1094995529, %38 ], [ %56, %49 ]
  call void @llvm.lifetime.end.p0(i64 4, ptr nonnull %3) #12
  br label %.loopexit

62:                                               ; preds = %58
  call void @llvm.lifetime.end.p0(i64 4, ptr nonnull %3) #12
  %63 = load i32, ptr %14, align 4, !tbaa !90
  %.not75 = icmp eq i32 %63, 0
  br i1 %.not75, label %29, label %._crit_edge

64:                                               ; preds = %36
  %65 = tail call i64 @avio_rb64(ptr noundef %7) #12
  %.not78 = icmp eq i64 %65, 0
  br i1 %.not78, label %66, label %.loopexit

66:                                               ; preds = %64
  store i32 1, ptr %10, align 4, !tbaa !120
  br label %.loopexit

67:                                               ; preds = %36
  %68 = tail call i64 @avio_seek(ptr noundef %7, i64 noundef 0, i32 noundef 1) #12
  %69 = add nsw i64 %68, -1
  tail call void (ptr, i32, ptr, ...) @av_log(ptr noundef nonnull %0, i32 noundef 16, ptr noundef nonnull @.str.50, i32 noundef %37, i64 noundef %69) #12
  br label %.loopexit

.loopexit:                                        ; preds = %34, %._crit_edge, %64, %.thread84, %.thread, %2, %9, %67, %66
  %.0 = phi i32 [ -541478725, %66 ], [ -5, %67 ], [ -541478725, %9 ], [ -541478725, %2 ], [ %.3.ph, %.thread ], [ %.062107, %64 ], [ 0, %.thread84 ], [ %28, %._crit_edge ], [ -541478725, %34 ]
  ret i32 %.0
}